
EVM.elf:     file format elf32-avr

Sections:
Idx Name          Size      VMA       LMA       File off  Algn
  0 .text         000007b4  00000000  00000000  00000094  2**1
                  CONTENTS, ALLOC, LOAD, READONLY, CODE
  1 .data         00000010  00800060  000007b4  00000848  2**0
                  CONTENTS, ALLOC, LOAD, DATA
  2 .bss          00000004  00800070  00800070  00000858  2**0
                  ALLOC
  3 .stab         000006cc  00000000  00000000  00000858  2**2
                  CONTENTS, READONLY, DEBUGGING
  4 .stabstr      00000085  00000000  00000000  00000f24  2**0
                  CONTENTS, READONLY, DEBUGGING
  5 .debug_aranges 000000e0  00000000  00000000  00000fb0  2**3
                  CONTENTS, READONLY, DEBUGGING
  6 .debug_info   00000b66  00000000  00000000  00001090  2**0
                  CONTENTS, READONLY, DEBUGGING
  7 .debug_abbrev 000003b2  00000000  00000000  00001bf6  2**0
                  CONTENTS, READONLY, DEBUGGING
  8 .debug_line   000006d1  00000000  00000000  00001fa8  2**0
                  CONTENTS, READONLY, DEBUGGING
  9 .debug_frame  0000016c  00000000  00000000  0000267c  2**2
                  CONTENTS, READONLY, DEBUGGING
 10 .debug_str    000002be  00000000  00000000  000027e8  2**0
                  CONTENTS, READONLY, DEBUGGING
 11 .debug_loc    00000557  00000000  00000000  00002aa6  2**0
                  CONTENTS, READONLY, DEBUGGING

Disassembly of section .text:

00000000 <__vectors>:
   0:	0c 94 2a 00 	jmp	0x54	; 0x54 <__ctors_end>
   4:	0c 94 47 00 	jmp	0x8e	; 0x8e <__bad_interrupt>
   8:	0c 94 47 00 	jmp	0x8e	; 0x8e <__bad_interrupt>
   c:	0c 94 47 00 	jmp	0x8e	; 0x8e <__bad_interrupt>
  10:	0c 94 47 00 	jmp	0x8e	; 0x8e <__bad_interrupt>
  14:	0c 94 47 00 	jmp	0x8e	; 0x8e <__bad_interrupt>
  18:	0c 94 47 00 	jmp	0x8e	; 0x8e <__bad_interrupt>
  1c:	0c 94 47 00 	jmp	0x8e	; 0x8e <__bad_interrupt>
  20:	0c 94 47 00 	jmp	0x8e	; 0x8e <__bad_interrupt>
  24:	0c 94 47 00 	jmp	0x8e	; 0x8e <__bad_interrupt>
  28:	0c 94 47 00 	jmp	0x8e	; 0x8e <__bad_interrupt>
  2c:	0c 94 47 00 	jmp	0x8e	; 0x8e <__bad_interrupt>
  30:	0c 94 47 00 	jmp	0x8e	; 0x8e <__bad_interrupt>
  34:	0c 94 47 00 	jmp	0x8e	; 0x8e <__bad_interrupt>
  38:	0c 94 47 00 	jmp	0x8e	; 0x8e <__bad_interrupt>
  3c:	0c 94 47 00 	jmp	0x8e	; 0x8e <__bad_interrupt>
  40:	0c 94 47 00 	jmp	0x8e	; 0x8e <__bad_interrupt>
  44:	0c 94 47 00 	jmp	0x8e	; 0x8e <__bad_interrupt>
  48:	0c 94 47 00 	jmp	0x8e	; 0x8e <__bad_interrupt>
  4c:	0c 94 47 00 	jmp	0x8e	; 0x8e <__bad_interrupt>
  50:	0c 94 47 00 	jmp	0x8e	; 0x8e <__bad_interrupt>

00000054 <__ctors_end>:
  54:	11 24       	eor	r1, r1
  56:	1f be       	out	0x3f, r1	; 63
  58:	cf e5       	ldi	r28, 0x5F	; 95
  5a:	d8 e0       	ldi	r29, 0x08	; 8
  5c:	de bf       	out	0x3e, r29	; 62
  5e:	cd bf       	out	0x3d, r28	; 61

00000060 <__do_copy_data>:
  60:	10 e0       	ldi	r17, 0x00	; 0
  62:	a0 e6       	ldi	r26, 0x60	; 96
  64:	b0 e0       	ldi	r27, 0x00	; 0
  66:	e4 eb       	ldi	r30, 0xB4	; 180
  68:	f7 e0       	ldi	r31, 0x07	; 7
  6a:	02 c0       	rjmp	.+4      	; 0x70 <__do_copy_data+0x10>
  6c:	05 90       	lpm	r0, Z+
  6e:	0d 92       	st	X+, r0
  70:	a0 37       	cpi	r26, 0x70	; 112
  72:	b1 07       	cpc	r27, r17
  74:	d9 f7       	brne	.-10     	; 0x6c <__do_copy_data+0xc>

00000076 <__do_clear_bss>:
  76:	10 e0       	ldi	r17, 0x00	; 0
  78:	a0 e7       	ldi	r26, 0x70	; 112
  7a:	b0 e0       	ldi	r27, 0x00	; 0
  7c:	01 c0       	rjmp	.+2      	; 0x80 <.do_clear_bss_start>

0000007e <.do_clear_bss_loop>:
  7e:	1d 92       	st	X+, r1

00000080 <.do_clear_bss_start>:
  80:	a4 37       	cpi	r26, 0x74	; 116
  82:	b1 07       	cpc	r27, r17
  84:	e1 f7       	brne	.-8      	; 0x7e <.do_clear_bss_loop>
  86:	0e 94 2c 02 	call	0x458	; 0x458 <main>
  8a:	0c 94 d8 03 	jmp	0x7b0	; 0x7b0 <_exit>

0000008e <__bad_interrupt>:
  8e:	0c 94 00 00 	jmp	0	; 0x0 <__vectors>

00000092 <button_vInit>:
  92:	40 e0       	ldi	r20, 0x00	; 0
  94:	0e 94 50 00 	call	0xa0	; 0xa0 <DIO_vsetPINDir>
  98:	08 95       	ret

0000009a <button_u8read>:
  9a:	0e 94 56 01 	call	0x2ac	; 0x2ac <DIO_u8read>
  9e:	08 95       	ret

000000a0 <DIO_vsetPINDir>:
  a0:	82 34       	cpi	r24, 0x42	; 66
  a2:	51 f1       	breq	.+84     	; 0xf8 <DIO_vsetPINDir+0x58>
  a4:	83 34       	cpi	r24, 0x43	; 67
  a6:	20 f4       	brcc	.+8      	; 0xb0 <DIO_vsetPINDir+0x10>
  a8:	81 34       	cpi	r24, 0x41	; 65
  aa:	09 f0       	breq	.+2      	; 0xae <DIO_vsetPINDir+0xe>
  ac:	7b c0       	rjmp	.+246    	; 0x1a4 <DIO_vsetPINDir+0x104>
  ae:	07 c0       	rjmp	.+14     	; 0xbe <DIO_vsetPINDir+0x1e>
  b0:	83 34       	cpi	r24, 0x43	; 67
  b2:	09 f4       	brne	.+2      	; 0xb6 <DIO_vsetPINDir+0x16>
  b4:	3e c0       	rjmp	.+124    	; 0x132 <DIO_vsetPINDir+0x92>
  b6:	84 34       	cpi	r24, 0x44	; 68
  b8:	09 f0       	breq	.+2      	; 0xbc <DIO_vsetPINDir+0x1c>
  ba:	74 c0       	rjmp	.+232    	; 0x1a4 <DIO_vsetPINDir+0x104>
  bc:	57 c0       	rjmp	.+174    	; 0x16c <DIO_vsetPINDir+0xcc>
  be:	41 30       	cpi	r20, 0x01	; 1
  c0:	69 f4       	brne	.+26     	; 0xdc <DIO_vsetPINDir+0x3c>
  c2:	2a b3       	in	r18, 0x1a	; 26
  c4:	81 e0       	ldi	r24, 0x01	; 1
  c6:	90 e0       	ldi	r25, 0x00	; 0
  c8:	ac 01       	movw	r20, r24
  ca:	02 c0       	rjmp	.+4      	; 0xd0 <DIO_vsetPINDir+0x30>
  cc:	44 0f       	add	r20, r20
  ce:	55 1f       	adc	r21, r21
  d0:	6a 95       	dec	r22
  d2:	e2 f7       	brpl	.-8      	; 0xcc <DIO_vsetPINDir+0x2c>
  d4:	ba 01       	movw	r22, r20
  d6:	62 2b       	or	r22, r18
  d8:	6a bb       	out	0x1a, r22	; 26
  da:	08 95       	ret
  dc:	2a b3       	in	r18, 0x1a	; 26
  de:	81 e0       	ldi	r24, 0x01	; 1
  e0:	90 e0       	ldi	r25, 0x00	; 0
  e2:	ac 01       	movw	r20, r24
  e4:	02 c0       	rjmp	.+4      	; 0xea <DIO_vsetPINDir+0x4a>
  e6:	44 0f       	add	r20, r20
  e8:	55 1f       	adc	r21, r21
  ea:	6a 95       	dec	r22
  ec:	e2 f7       	brpl	.-8      	; 0xe6 <DIO_vsetPINDir+0x46>
  ee:	ba 01       	movw	r22, r20
  f0:	60 95       	com	r22
  f2:	62 23       	and	r22, r18
  f4:	6a bb       	out	0x1a, r22	; 26
  f6:	08 95       	ret
  f8:	41 30       	cpi	r20, 0x01	; 1
  fa:	69 f4       	brne	.+26     	; 0x116 <DIO_vsetPINDir+0x76>
  fc:	27 b3       	in	r18, 0x17	; 23
  fe:	81 e0       	ldi	r24, 0x01	; 1
 100:	90 e0       	ldi	r25, 0x00	; 0
 102:	ac 01       	movw	r20, r24
 104:	02 c0       	rjmp	.+4      	; 0x10a <DIO_vsetPINDir+0x6a>
 106:	44 0f       	add	r20, r20
 108:	55 1f       	adc	r21, r21
 10a:	6a 95       	dec	r22
 10c:	e2 f7       	brpl	.-8      	; 0x106 <DIO_vsetPINDir+0x66>
 10e:	ba 01       	movw	r22, r20
 110:	62 2b       	or	r22, r18
 112:	67 bb       	out	0x17, r22	; 23
 114:	08 95       	ret
 116:	27 b3       	in	r18, 0x17	; 23
 118:	81 e0       	ldi	r24, 0x01	; 1
 11a:	90 e0       	ldi	r25, 0x00	; 0
 11c:	ac 01       	movw	r20, r24
 11e:	02 c0       	rjmp	.+4      	; 0x124 <DIO_vsetPINDir+0x84>
 120:	44 0f       	add	r20, r20
 122:	55 1f       	adc	r21, r21
 124:	6a 95       	dec	r22
 126:	e2 f7       	brpl	.-8      	; 0x120 <DIO_vsetPINDir+0x80>
 128:	ba 01       	movw	r22, r20
 12a:	60 95       	com	r22
 12c:	62 23       	and	r22, r18
 12e:	67 bb       	out	0x17, r22	; 23
 130:	08 95       	ret
 132:	41 30       	cpi	r20, 0x01	; 1
 134:	69 f4       	brne	.+26     	; 0x150 <DIO_vsetPINDir+0xb0>
 136:	24 b3       	in	r18, 0x14	; 20
 138:	81 e0       	ldi	r24, 0x01	; 1
 13a:	90 e0       	ldi	r25, 0x00	; 0
 13c:	ac 01       	movw	r20, r24
 13e:	02 c0       	rjmp	.+4      	; 0x144 <DIO_vsetPINDir+0xa4>
 140:	44 0f       	add	r20, r20
 142:	55 1f       	adc	r21, r21
 144:	6a 95       	dec	r22
 146:	e2 f7       	brpl	.-8      	; 0x140 <DIO_vsetPINDir+0xa0>
 148:	ba 01       	movw	r22, r20
 14a:	62 2b       	or	r22, r18
 14c:	64 bb       	out	0x14, r22	; 20
 14e:	08 95       	ret
 150:	24 b3       	in	r18, 0x14	; 20
 152:	81 e0       	ldi	r24, 0x01	; 1
 154:	90 e0       	ldi	r25, 0x00	; 0
 156:	ac 01       	movw	r20, r24
 158:	02 c0       	rjmp	.+4      	; 0x15e <DIO_vsetPINDir+0xbe>
 15a:	44 0f       	add	r20, r20
 15c:	55 1f       	adc	r21, r21
 15e:	6a 95       	dec	r22
 160:	e2 f7       	brpl	.-8      	; 0x15a <DIO_vsetPINDir+0xba>
 162:	ba 01       	movw	r22, r20
 164:	60 95       	com	r22
 166:	62 23       	and	r22, r18
 168:	64 bb       	out	0x14, r22	; 20
 16a:	08 95       	ret
 16c:	41 30       	cpi	r20, 0x01	; 1
 16e:	69 f4       	brne	.+26     	; 0x18a <DIO_vsetPINDir+0xea>
 170:	21 b3       	in	r18, 0x11	; 17
 172:	81 e0       	ldi	r24, 0x01	; 1
 174:	90 e0       	ldi	r25, 0x00	; 0
 176:	ac 01       	movw	r20, r24
 178:	02 c0       	rjmp	.+4      	; 0x17e <DIO_vsetPINDir+0xde>
 17a:	44 0f       	add	r20, r20
 17c:	55 1f       	adc	r21, r21
 17e:	6a 95       	dec	r22
 180:	e2 f7       	brpl	.-8      	; 0x17a <DIO_vsetPINDir+0xda>
 182:	ba 01       	movw	r22, r20
 184:	62 2b       	or	r22, r18
 186:	61 bb       	out	0x11, r22	; 17
 188:	08 95       	ret
 18a:	21 b3       	in	r18, 0x11	; 17
 18c:	81 e0       	ldi	r24, 0x01	; 1
 18e:	90 e0       	ldi	r25, 0x00	; 0
 190:	ac 01       	movw	r20, r24
 192:	02 c0       	rjmp	.+4      	; 0x198 <DIO_vsetPINDir+0xf8>
 194:	44 0f       	add	r20, r20
 196:	55 1f       	adc	r21, r21
 198:	6a 95       	dec	r22
 19a:	e2 f7       	brpl	.-8      	; 0x194 <DIO_vsetPINDir+0xf4>
 19c:	ba 01       	movw	r22, r20
 19e:	60 95       	com	r22
 1a0:	62 23       	and	r22, r18
 1a2:	61 bb       	out	0x11, r22	; 17
 1a4:	08 95       	ret

000001a6 <DIO_write>:
 1a6:	82 34       	cpi	r24, 0x42	; 66
 1a8:	51 f1       	breq	.+84     	; 0x1fe <DIO_write+0x58>
 1aa:	83 34       	cpi	r24, 0x43	; 67
 1ac:	20 f4       	brcc	.+8      	; 0x1b6 <DIO_write+0x10>
 1ae:	81 34       	cpi	r24, 0x41	; 65
 1b0:	09 f0       	breq	.+2      	; 0x1b4 <DIO_write+0xe>
 1b2:	7b c0       	rjmp	.+246    	; 0x2aa <DIO_write+0x104>
 1b4:	07 c0       	rjmp	.+14     	; 0x1c4 <DIO_write+0x1e>
 1b6:	83 34       	cpi	r24, 0x43	; 67
 1b8:	09 f4       	brne	.+2      	; 0x1bc <DIO_write+0x16>
 1ba:	3e c0       	rjmp	.+124    	; 0x238 <DIO_write+0x92>
 1bc:	84 34       	cpi	r24, 0x44	; 68
 1be:	09 f0       	breq	.+2      	; 0x1c2 <DIO_write+0x1c>
 1c0:	74 c0       	rjmp	.+232    	; 0x2aa <DIO_write+0x104>
 1c2:	57 c0       	rjmp	.+174    	; 0x272 <DIO_write+0xcc>
 1c4:	41 30       	cpi	r20, 0x01	; 1
 1c6:	69 f4       	brne	.+26     	; 0x1e2 <DIO_write+0x3c>
 1c8:	2b b3       	in	r18, 0x1b	; 27
 1ca:	81 e0       	ldi	r24, 0x01	; 1
 1cc:	90 e0       	ldi	r25, 0x00	; 0
 1ce:	ac 01       	movw	r20, r24
 1d0:	02 c0       	rjmp	.+4      	; 0x1d6 <DIO_write+0x30>
 1d2:	44 0f       	add	r20, r20
 1d4:	55 1f       	adc	r21, r21
 1d6:	6a 95       	dec	r22
 1d8:	e2 f7       	brpl	.-8      	; 0x1d2 <DIO_write+0x2c>
 1da:	ba 01       	movw	r22, r20
 1dc:	62 2b       	or	r22, r18
 1de:	6b bb       	out	0x1b, r22	; 27
 1e0:	08 95       	ret
 1e2:	2b b3       	in	r18, 0x1b	; 27
 1e4:	81 e0       	ldi	r24, 0x01	; 1
 1e6:	90 e0       	ldi	r25, 0x00	; 0
 1e8:	ac 01       	movw	r20, r24
 1ea:	02 c0       	rjmp	.+4      	; 0x1f0 <DIO_write+0x4a>
 1ec:	44 0f       	add	r20, r20
 1ee:	55 1f       	adc	r21, r21
 1f0:	6a 95       	dec	r22
 1f2:	e2 f7       	brpl	.-8      	; 0x1ec <DIO_write+0x46>
 1f4:	ba 01       	movw	r22, r20
 1f6:	60 95       	com	r22
 1f8:	62 23       	and	r22, r18
 1fa:	6b bb       	out	0x1b, r22	; 27
 1fc:	08 95       	ret
 1fe:	41 30       	cpi	r20, 0x01	; 1
 200:	69 f4       	brne	.+26     	; 0x21c <DIO_write+0x76>
 202:	28 b3       	in	r18, 0x18	; 24
 204:	81 e0       	ldi	r24, 0x01	; 1
 206:	90 e0       	ldi	r25, 0x00	; 0
 208:	ac 01       	movw	r20, r24
 20a:	02 c0       	rjmp	.+4      	; 0x210 <DIO_write+0x6a>
 20c:	44 0f       	add	r20, r20
 20e:	55 1f       	adc	r21, r21
 210:	6a 95       	dec	r22
 212:	e2 f7       	brpl	.-8      	; 0x20c <DIO_write+0x66>
 214:	ba 01       	movw	r22, r20
 216:	62 2b       	or	r22, r18
 218:	68 bb       	out	0x18, r22	; 24
 21a:	08 95       	ret
 21c:	28 b3       	in	r18, 0x18	; 24
 21e:	81 e0       	ldi	r24, 0x01	; 1
 220:	90 e0       	ldi	r25, 0x00	; 0
 222:	ac 01       	movw	r20, r24
 224:	02 c0       	rjmp	.+4      	; 0x22a <DIO_write+0x84>
 226:	44 0f       	add	r20, r20
 228:	55 1f       	adc	r21, r21
 22a:	6a 95       	dec	r22
 22c:	e2 f7       	brpl	.-8      	; 0x226 <DIO_write+0x80>
 22e:	ba 01       	movw	r22, r20
 230:	60 95       	com	r22
 232:	62 23       	and	r22, r18
 234:	68 bb       	out	0x18, r22	; 24
 236:	08 95       	ret
 238:	41 30       	cpi	r20, 0x01	; 1
 23a:	69 f4       	brne	.+26     	; 0x256 <DIO_write+0xb0>
 23c:	25 b3       	in	r18, 0x15	; 21
 23e:	81 e0       	ldi	r24, 0x01	; 1
 240:	90 e0       	ldi	r25, 0x00	; 0
 242:	ac 01       	movw	r20, r24
 244:	02 c0       	rjmp	.+4      	; 0x24a <DIO_write+0xa4>
 246:	44 0f       	add	r20, r20
 248:	55 1f       	adc	r21, r21
 24a:	6a 95       	dec	r22
 24c:	e2 f7       	brpl	.-8      	; 0x246 <DIO_write+0xa0>
 24e:	ba 01       	movw	r22, r20
 250:	62 2b       	or	r22, r18
 252:	65 bb       	out	0x15, r22	; 21
 254:	08 95       	ret
 256:	25 b3       	in	r18, 0x15	; 21
 258:	81 e0       	ldi	r24, 0x01	; 1
 25a:	90 e0       	ldi	r25, 0x00	; 0
 25c:	ac 01       	movw	r20, r24
 25e:	02 c0       	rjmp	.+4      	; 0x264 <DIO_write+0xbe>
 260:	44 0f       	add	r20, r20
 262:	55 1f       	adc	r21, r21
 264:	6a 95       	dec	r22
 266:	e2 f7       	brpl	.-8      	; 0x260 <DIO_write+0xba>
 268:	ba 01       	movw	r22, r20
 26a:	60 95       	com	r22
 26c:	62 23       	and	r22, r18
 26e:	65 bb       	out	0x15, r22	; 21
 270:	08 95       	ret
 272:	41 30       	cpi	r20, 0x01	; 1
 274:	69 f4       	brne	.+26     	; 0x290 <DIO_write+0xea>
 276:	22 b3       	in	r18, 0x12	; 18
 278:	81 e0       	ldi	r24, 0x01	; 1
 27a:	90 e0       	ldi	r25, 0x00	; 0
 27c:	ac 01       	movw	r20, r24
 27e:	02 c0       	rjmp	.+4      	; 0x284 <DIO_write+0xde>
 280:	44 0f       	add	r20, r20
 282:	55 1f       	adc	r21, r21
 284:	6a 95       	dec	r22
 286:	e2 f7       	brpl	.-8      	; 0x280 <DIO_write+0xda>
 288:	ba 01       	movw	r22, r20
 28a:	62 2b       	or	r22, r18
 28c:	62 bb       	out	0x12, r22	; 18
 28e:	08 95       	ret
 290:	22 b3       	in	r18, 0x12	; 18
 292:	81 e0       	ldi	r24, 0x01	; 1
 294:	90 e0       	ldi	r25, 0x00	; 0
 296:	ac 01       	movw	r20, r24
 298:	02 c0       	rjmp	.+4      	; 0x29e <DIO_write+0xf8>
 29a:	44 0f       	add	r20, r20
 29c:	55 1f       	adc	r21, r21
 29e:	6a 95       	dec	r22
 2a0:	e2 f7       	brpl	.-8      	; 0x29a <DIO_write+0xf4>
 2a2:	ba 01       	movw	r22, r20
 2a4:	60 95       	com	r22
 2a6:	62 23       	and	r22, r18
 2a8:	62 bb       	out	0x12, r22	; 18
 2aa:	08 95       	ret

000002ac <DIO_u8read>:
 2ac:	82 34       	cpi	r24, 0x42	; 66
 2ae:	f1 f0       	breq	.+60     	; 0x2ec <DIO_u8read+0x40>
 2b0:	83 34       	cpi	r24, 0x43	; 67
 2b2:	20 f4       	brcc	.+8      	; 0x2bc <DIO_u8read+0x10>
 2b4:	81 34       	cpi	r24, 0x41	; 65
 2b6:	09 f0       	breq	.+2      	; 0x2ba <DIO_u8read+0xe>
 2b8:	4f c0       	rjmp	.+158    	; 0x358 <DIO_u8read+0xac>
 2ba:	06 c0       	rjmp	.+12     	; 0x2c8 <DIO_u8read+0x1c>
 2bc:	83 34       	cpi	r24, 0x43	; 67
 2be:	41 f1       	breq	.+80     	; 0x310 <DIO_u8read+0x64>
 2c0:	84 34       	cpi	r24, 0x44	; 68
 2c2:	09 f0       	breq	.+2      	; 0x2c6 <DIO_u8read+0x1a>
 2c4:	49 c0       	rjmp	.+146    	; 0x358 <DIO_u8read+0xac>
 2c6:	36 c0       	rjmp	.+108    	; 0x334 <DIO_u8read+0x88>
 2c8:	29 b3       	in	r18, 0x19	; 25
 2ca:	81 e0       	ldi	r24, 0x01	; 1
 2cc:	90 e0       	ldi	r25, 0x00	; 0
 2ce:	06 2e       	mov	r0, r22
 2d0:	02 c0       	rjmp	.+4      	; 0x2d6 <DIO_u8read+0x2a>
 2d2:	88 0f       	add	r24, r24
 2d4:	99 1f       	adc	r25, r25
 2d6:	0a 94       	dec	r0
 2d8:	e2 f7       	brpl	.-8      	; 0x2d2 <DIO_u8read+0x26>
 2da:	30 e0       	ldi	r19, 0x00	; 0
 2dc:	82 23       	and	r24, r18
 2de:	93 23       	and	r25, r19
 2e0:	02 c0       	rjmp	.+4      	; 0x2e6 <DIO_u8read+0x3a>
 2e2:	95 95       	asr	r25
 2e4:	87 95       	ror	r24
 2e6:	6a 95       	dec	r22
 2e8:	e2 f7       	brpl	.-8      	; 0x2e2 <DIO_u8read+0x36>
 2ea:	08 95       	ret
 2ec:	26 b3       	in	r18, 0x16	; 22
 2ee:	81 e0       	ldi	r24, 0x01	; 1
 2f0:	90 e0       	ldi	r25, 0x00	; 0
 2f2:	06 2e       	mov	r0, r22
 2f4:	02 c0       	rjmp	.+4      	; 0x2fa <DIO_u8read+0x4e>
 2f6:	88 0f       	add	r24, r24
 2f8:	99 1f       	adc	r25, r25
 2fa:	0a 94       	dec	r0
 2fc:	e2 f7       	brpl	.-8      	; 0x2f6 <DIO_u8read+0x4a>
 2fe:	30 e0       	ldi	r19, 0x00	; 0
 300:	82 23       	and	r24, r18
 302:	93 23       	and	r25, r19
 304:	02 c0       	rjmp	.+4      	; 0x30a <DIO_u8read+0x5e>
 306:	95 95       	asr	r25
 308:	87 95       	ror	r24
 30a:	6a 95       	dec	r22
 30c:	e2 f7       	brpl	.-8      	; 0x306 <DIO_u8read+0x5a>
 30e:	08 95       	ret
 310:	23 b3       	in	r18, 0x13	; 19
 312:	81 e0       	ldi	r24, 0x01	; 1
 314:	90 e0       	ldi	r25, 0x00	; 0
 316:	06 2e       	mov	r0, r22
 318:	02 c0       	rjmp	.+4      	; 0x31e <DIO_u8read+0x72>
 31a:	88 0f       	add	r24, r24
 31c:	99 1f       	adc	r25, r25
 31e:	0a 94       	dec	r0
 320:	e2 f7       	brpl	.-8      	; 0x31a <DIO_u8read+0x6e>
 322:	30 e0       	ldi	r19, 0x00	; 0
 324:	82 23       	and	r24, r18
 326:	93 23       	and	r25, r19
 328:	02 c0       	rjmp	.+4      	; 0x32e <DIO_u8read+0x82>
 32a:	95 95       	asr	r25
 32c:	87 95       	ror	r24
 32e:	6a 95       	dec	r22
 330:	e2 f7       	brpl	.-8      	; 0x32a <DIO_u8read+0x7e>
 332:	08 95       	ret
 334:	20 b3       	in	r18, 0x10	; 16
 336:	81 e0       	ldi	r24, 0x01	; 1
 338:	90 e0       	ldi	r25, 0x00	; 0
 33a:	06 2e       	mov	r0, r22
 33c:	02 c0       	rjmp	.+4      	; 0x342 <DIO_u8read+0x96>
 33e:	88 0f       	add	r24, r24
 340:	99 1f       	adc	r25, r25
 342:	0a 94       	dec	r0
 344:	e2 f7       	brpl	.-8      	; 0x33e <DIO_u8read+0x92>
 346:	30 e0       	ldi	r19, 0x00	; 0
 348:	82 23       	and	r24, r18
 34a:	93 23       	and	r25, r19
 34c:	02 c0       	rjmp	.+4      	; 0x352 <DIO_u8read+0xa6>
 34e:	95 95       	asr	r25
 350:	87 95       	ror	r24
 352:	6a 95       	dec	r22
 354:	e2 f7       	brpl	.-8      	; 0x34e <DIO_u8read+0xa2>
 356:	08 95       	ret
 358:	80 e0       	ldi	r24, 0x00	; 0
 35a:	08 95       	ret

0000035c <DIO_toggle>:
 35c:	82 34       	cpi	r24, 0x42	; 66
 35e:	b9 f0       	breq	.+46     	; 0x38e <DIO_toggle+0x32>
 360:	83 34       	cpi	r24, 0x43	; 67
 362:	18 f4       	brcc	.+6      	; 0x36a <DIO_toggle+0xe>
 364:	81 34       	cpi	r24, 0x41	; 65
 366:	c9 f5       	brne	.+114    	; 0x3da <DIO_toggle+0x7e>
 368:	05 c0       	rjmp	.+10     	; 0x374 <DIO_toggle+0x18>
 36a:	83 34       	cpi	r24, 0x43	; 67
 36c:	e9 f0       	breq	.+58     	; 0x3a8 <DIO_toggle+0x4c>
 36e:	84 34       	cpi	r24, 0x44	; 68
 370:	a1 f5       	brne	.+104    	; 0x3da <DIO_toggle+0x7e>
 372:	27 c0       	rjmp	.+78     	; 0x3c2 <DIO_toggle+0x66>
 374:	2b b3       	in	r18, 0x1b	; 27
 376:	81 e0       	ldi	r24, 0x01	; 1
 378:	90 e0       	ldi	r25, 0x00	; 0
 37a:	ac 01       	movw	r20, r24
 37c:	02 c0       	rjmp	.+4      	; 0x382 <DIO_toggle+0x26>
 37e:	44 0f       	add	r20, r20
 380:	55 1f       	adc	r21, r21
 382:	6a 95       	dec	r22
 384:	e2 f7       	brpl	.-8      	; 0x37e <DIO_toggle+0x22>
 386:	ba 01       	movw	r22, r20
 388:	62 27       	eor	r22, r18
 38a:	6b bb       	out	0x1b, r22	; 27
 38c:	08 95       	ret
 38e:	28 b3       	in	r18, 0x18	; 24
 390:	81 e0       	ldi	r24, 0x01	; 1
 392:	90 e0       	ldi	r25, 0x00	; 0
 394:	ac 01       	movw	r20, r24
 396:	02 c0       	rjmp	.+4      	; 0x39c <DIO_toggle+0x40>
 398:	44 0f       	add	r20, r20
 39a:	55 1f       	adc	r21, r21
 39c:	6a 95       	dec	r22
 39e:	e2 f7       	brpl	.-8      	; 0x398 <DIO_toggle+0x3c>
 3a0:	ba 01       	movw	r22, r20
 3a2:	62 27       	eor	r22, r18
 3a4:	68 bb       	out	0x18, r22	; 24
 3a6:	08 95       	ret
 3a8:	25 b3       	in	r18, 0x15	; 21
 3aa:	81 e0       	ldi	r24, 0x01	; 1
 3ac:	90 e0       	ldi	r25, 0x00	; 0
 3ae:	ac 01       	movw	r20, r24
 3b0:	02 c0       	rjmp	.+4      	; 0x3b6 <DIO_toggle+0x5a>
 3b2:	44 0f       	add	r20, r20
 3b4:	55 1f       	adc	r21, r21
 3b6:	6a 95       	dec	r22
 3b8:	e2 f7       	brpl	.-8      	; 0x3b2 <DIO_toggle+0x56>
 3ba:	ba 01       	movw	r22, r20
 3bc:	62 27       	eor	r22, r18
 3be:	65 bb       	out	0x15, r22	; 21
 3c0:	08 95       	ret
 3c2:	22 b3       	in	r18, 0x12	; 18
 3c4:	81 e0       	ldi	r24, 0x01	; 1
 3c6:	90 e0       	ldi	r25, 0x00	; 0
 3c8:	ac 01       	movw	r20, r24
 3ca:	02 c0       	rjmp	.+4      	; 0x3d0 <DIO_toggle+0x74>
 3cc:	44 0f       	add	r20, r20
 3ce:	55 1f       	adc	r21, r21
 3d0:	6a 95       	dec	r22
 3d2:	e2 f7       	brpl	.-8      	; 0x3cc <DIO_toggle+0x70>
 3d4:	ba 01       	movw	r22, r20
 3d6:	62 27       	eor	r22, r18
 3d8:	62 bb       	out	0x12, r22	; 18
 3da:	08 95       	ret

000003dc <DIO_set_port_direction>:
 3dc:	82 34       	cpi	r24, 0x42	; 66
 3de:	61 f0       	breq	.+24     	; 0x3f8 <DIO_set_port_direction+0x1c>
 3e0:	83 34       	cpi	r24, 0x43	; 67
 3e2:	18 f4       	brcc	.+6      	; 0x3ea <DIO_set_port_direction+0xe>
 3e4:	81 34       	cpi	r24, 0x41	; 65
 3e6:	69 f4       	brne	.+26     	; 0x402 <DIO_set_port_direction+0x26>
 3e8:	05 c0       	rjmp	.+10     	; 0x3f4 <DIO_set_port_direction+0x18>
 3ea:	83 34       	cpi	r24, 0x43	; 67
 3ec:	39 f0       	breq	.+14     	; 0x3fc <DIO_set_port_direction+0x20>
 3ee:	84 34       	cpi	r24, 0x44	; 68
 3f0:	41 f4       	brne	.+16     	; 0x402 <DIO_set_port_direction+0x26>
 3f2:	06 c0       	rjmp	.+12     	; 0x400 <DIO_set_port_direction+0x24>
 3f4:	6a bb       	out	0x1a, r22	; 26
 3f6:	08 95       	ret
 3f8:	67 bb       	out	0x17, r22	; 23
 3fa:	08 95       	ret
 3fc:	64 bb       	out	0x14, r22	; 20
 3fe:	08 95       	ret
 400:	61 bb       	out	0x11, r22	; 17
 402:	08 95       	ret

00000404 <DIO_write_port>:
 404:	82 34       	cpi	r24, 0x42	; 66
 406:	61 f0       	breq	.+24     	; 0x420 <DIO_write_port+0x1c>
 408:	83 34       	cpi	r24, 0x43	; 67
 40a:	18 f4       	brcc	.+6      	; 0x412 <DIO_write_port+0xe>
 40c:	81 34       	cpi	r24, 0x41	; 65
 40e:	69 f4       	brne	.+26     	; 0x42a <DIO_write_port+0x26>
 410:	05 c0       	rjmp	.+10     	; 0x41c <DIO_write_port+0x18>
 412:	83 34       	cpi	r24, 0x43	; 67
 414:	39 f0       	breq	.+14     	; 0x424 <DIO_write_port+0x20>
 416:	84 34       	cpi	r24, 0x44	; 68
 418:	41 f4       	brne	.+16     	; 0x42a <DIO_write_port+0x26>
 41a:	06 c0       	rjmp	.+12     	; 0x428 <DIO_write_port+0x24>
 41c:	6b bb       	out	0x1b, r22	; 27
 41e:	08 95       	ret
 420:	68 bb       	out	0x18, r22	; 24
 422:	08 95       	ret
 424:	65 bb       	out	0x15, r22	; 21
 426:	08 95       	ret
 428:	62 bb       	out	0x12, r22	; 18
 42a:	08 95       	ret

0000042c <DIO_read_port>:
 42c:	82 34       	cpi	r24, 0x42	; 66
 42e:	61 f0       	breq	.+24     	; 0x448 <DIO_read_port+0x1c>
 430:	83 34       	cpi	r24, 0x43	; 67
 432:	18 f4       	brcc	.+6      	; 0x43a <DIO_read_port+0xe>
 434:	81 34       	cpi	r24, 0x41	; 65
 436:	71 f4       	brne	.+28     	; 0x454 <DIO_read_port+0x28>
 438:	05 c0       	rjmp	.+10     	; 0x444 <DIO_read_port+0x18>
 43a:	83 34       	cpi	r24, 0x43	; 67
 43c:	39 f0       	breq	.+14     	; 0x44c <DIO_read_port+0x20>
 43e:	84 34       	cpi	r24, 0x44	; 68
 440:	49 f4       	brne	.+18     	; 0x454 <DIO_read_port+0x28>
 442:	06 c0       	rjmp	.+12     	; 0x450 <DIO_read_port+0x24>
 444:	89 b3       	in	r24, 0x19	; 25
 446:	08 95       	ret
 448:	86 b3       	in	r24, 0x16	; 22
 44a:	08 95       	ret
 44c:	83 b3       	in	r24, 0x13	; 19
 44e:	08 95       	ret
 450:	80 b3       	in	r24, 0x10	; 16
 452:	08 95       	ret
 454:	80 e0       	ldi	r24, 0x00	; 0
 456:	08 95       	ret

00000458 <main>:
unsigned char counter2=0;
unsigned char counter3=0;
unsigned char counter4=0;
int main(void)
{
	LCD_vInit();
 458:	0e 94 22 03 	call	0x644	; 0x644 <LCD_vInit>
	button_vInit('B',3);
 45c:	82 e4       	ldi	r24, 0x42	; 66
 45e:	63 e0       	ldi	r22, 0x03	; 3
 460:	0e 94 49 00 	call	0x92	; 0x92 <button_vInit>
	button_vInit('B',4);
 464:	82 e4       	ldi	r24, 0x42	; 66
 466:	64 e0       	ldi	r22, 0x04	; 4
 468:	0e 94 49 00 	call	0x92	; 0x92 <button_vInit>
	button_vInit('B',5);
 46c:	82 e4       	ldi	r24, 0x42	; 66
 46e:	65 e0       	ldi	r22, 0x05	; 5
 470:	0e 94 49 00 	call	0x92	; 0x92 <button_vInit>
	button_vInit('B',6);
 474:	82 e4       	ldi	r24, 0x42	; 66
 476:	66 e0       	ldi	r22, 0x06	; 6
 478:	0e 94 49 00 	call	0x92	; 0x92 <button_vInit>
	button_vInit('B',7);
 47c:	82 e4       	ldi	r24, 0x42	; 66
 47e:	67 e0       	ldi	r22, 0x07	; 7
 480:	0e 94 49 00 	call	0x92	; 0x92 <button_vInit>
	
	LCD_vSend_string("A=0");
 484:	80 e6       	ldi	r24, 0x60	; 96
 486:	90 e0       	ldi	r25, 0x00	; 0
 488:	0e 94 9e 03 	call	0x73c	; 0x73c <LCD_vSend_string>
	LCD_movecursor(1,12);
 48c:	81 e0       	ldi	r24, 0x01	; 1
 48e:	6c e0       	ldi	r22, 0x0C	; 12
 490:	0e 94 b7 03 	call	0x76e	; 0x76e <LCD_movecursor>
	LCD_vSend_string("B=0");
 494:	84 e6       	ldi	r24, 0x64	; 100
 496:	90 e0       	ldi	r25, 0x00	; 0
 498:	0e 94 9e 03 	call	0x73c	; 0x73c <LCD_vSend_string>
	LCD_movecursor(2,1);
 49c:	82 e0       	ldi	r24, 0x02	; 2
 49e:	61 e0       	ldi	r22, 0x01	; 1
 4a0:	0e 94 b7 03 	call	0x76e	; 0x76e <LCD_movecursor>
	LCD_vSend_string("C=0");
 4a4:	88 e6       	ldi	r24, 0x68	; 104
 4a6:	90 e0       	ldi	r25, 0x00	; 0
 4a8:	0e 94 9e 03 	call	0x73c	; 0x73c <LCD_vSend_string>
	LCD_movecursor(2,12);
 4ac:	82 e0       	ldi	r24, 0x02	; 2
 4ae:	6c e0       	ldi	r22, 0x0C	; 12
 4b0:	0e 94 b7 03 	call	0x76e	; 0x76e <LCD_movecursor>
	LCD_vSend_string("D=0");
 4b4:	8c e6       	ldi	r24, 0x6C	; 108
 4b6:	90 e0       	ldi	r25, 0x00	; 0
 4b8:	0e 94 9e 03 	call	0x73c	; 0x73c <LCD_vSend_string>
		}
		else if(button_u8read('B',7)==1)
		{
			counter1=counter2=counter3=counter4=0;
			LCD_movecursor(1,1);
			LCD_vSend_string("A=0");
 4bc:	c0 e6       	ldi	r28, 0x60	; 96
 4be:	d0 e0       	ldi	r29, 0x00	; 0
			LCD_movecursor(1,12);
			LCD_vSend_string("B=0");
 4c0:	04 e6       	ldi	r16, 0x64	; 100
 4c2:	10 e0       	ldi	r17, 0x00	; 0
			LCD_movecursor(2,1);
			LCD_vSend_string("C=0");
 4c4:	0f 2e       	mov	r0, r31
 4c6:	f8 e6       	ldi	r31, 0x68	; 104
 4c8:	ef 2e       	mov	r14, r31
 4ca:	f0 e0       	ldi	r31, 0x00	; 0
 4cc:	ff 2e       	mov	r15, r31
 4ce:	f0 2d       	mov	r31, r0
			LCD_movecursor(2,12);
			LCD_vSend_string("D=0");
 4d0:	0f 2e       	mov	r0, r31
 4d2:	fc e6       	ldi	r31, 0x6C	; 108
 4d4:	cf 2e       	mov	r12, r31
 4d6:	f0 e0       	ldi	r31, 0x00	; 0
 4d8:	df 2e       	mov	r13, r31
 4da:	f0 2d       	mov	r31, r0
	LCD_vSend_string("C=0");
	LCD_movecursor(2,12);
	LCD_vSend_string("D=0");
    while(1)
    {
		if (button_u8read('B',3)==1)
 4dc:	82 e4       	ldi	r24, 0x42	; 66
 4de:	63 e0       	ldi	r22, 0x03	; 3
 4e0:	0e 94 4d 00 	call	0x9a	; 0x9a <button_u8read>
 4e4:	81 30       	cpi	r24, 0x01	; 1
 4e6:	79 f4       	brne	.+30     	; 0x506 <main+0xae>
		{
			counter1++;
 4e8:	80 91 73 00 	lds	r24, 0x0073
 4ec:	8f 5f       	subi	r24, 0xFF	; 255
 4ee:	80 93 73 00 	sts	0x0073, r24
			LCD_movecursor(1,3);
 4f2:	81 e0       	ldi	r24, 0x01	; 1
 4f4:	63 e0       	ldi	r22, 0x03	; 3
 4f6:	0e 94 b7 03 	call	0x76e	; 0x76e <LCD_movecursor>
			LCD_vSend_char(counter1+48);
 4fa:	80 91 73 00 	lds	r24, 0x0073
 4fe:	80 5d       	subi	r24, 0xD0	; 208
 500:	0e 94 8c 03 	call	0x718	; 0x718 <LCD_vSend_char>
 504:	6c c0       	rjmp	.+216    	; 0x5de <main+0x186>
			
		}
		else if(button_u8read('B',4)==1)
 506:	82 e4       	ldi	r24, 0x42	; 66
 508:	64 e0       	ldi	r22, 0x04	; 4
 50a:	0e 94 4d 00 	call	0x9a	; 0x9a <button_u8read>
 50e:	81 30       	cpi	r24, 0x01	; 1
 510:	79 f4       	brne	.+30     	; 0x530 <main+0xd8>
		{
			counter2++;
 512:	80 91 72 00 	lds	r24, 0x0072
 516:	8f 5f       	subi	r24, 0xFF	; 255
 518:	80 93 72 00 	sts	0x0072, r24
			LCD_movecursor(1,14);
 51c:	81 e0       	ldi	r24, 0x01	; 1
 51e:	6e e0       	ldi	r22, 0x0E	; 14
 520:	0e 94 b7 03 	call	0x76e	; 0x76e <LCD_movecursor>
			LCD_vSend_char(counter2+48);
 524:	80 91 72 00 	lds	r24, 0x0072
 528:	80 5d       	subi	r24, 0xD0	; 208
 52a:	0e 94 8c 03 	call	0x718	; 0x718 <LCD_vSend_char>
 52e:	57 c0       	rjmp	.+174    	; 0x5de <main+0x186>
			
		}
		else if(button_u8read('B',5)==1)
 530:	82 e4       	ldi	r24, 0x42	; 66
 532:	65 e0       	ldi	r22, 0x05	; 5
 534:	0e 94 4d 00 	call	0x9a	; 0x9a <button_u8read>
 538:	81 30       	cpi	r24, 0x01	; 1
 53a:	79 f4       	brne	.+30     	; 0x55a <main+0x102>
		{
			counter3++;
 53c:	80 91 71 00 	lds	r24, 0x0071
 540:	8f 5f       	subi	r24, 0xFF	; 255
 542:	80 93 71 00 	sts	0x0071, r24
			LCD_movecursor(2,3);
 546:	82 e0       	ldi	r24, 0x02	; 2
 548:	63 e0       	ldi	r22, 0x03	; 3
 54a:	0e 94 b7 03 	call	0x76e	; 0x76e <LCD_movecursor>
			LCD_vSend_char(counter3+48);
 54e:	80 91 71 00 	lds	r24, 0x0071
 552:	80 5d       	subi	r24, 0xD0	; 208
 554:	0e 94 8c 03 	call	0x718	; 0x718 <LCD_vSend_char>
 558:	42 c0       	rjmp	.+132    	; 0x5de <main+0x186>
			
		}
		else if(button_u8read('B',6)==1)
 55a:	82 e4       	ldi	r24, 0x42	; 66
 55c:	66 e0       	ldi	r22, 0x06	; 6
 55e:	0e 94 4d 00 	call	0x9a	; 0x9a <button_u8read>
 562:	81 30       	cpi	r24, 0x01	; 1
 564:	79 f4       	brne	.+30     	; 0x584 <main+0x12c>
		{
			counter4++;
 566:	80 91 70 00 	lds	r24, 0x0070
 56a:	8f 5f       	subi	r24, 0xFF	; 255
 56c:	80 93 70 00 	sts	0x0070, r24
			LCD_movecursor(2,14);
 570:	82 e0       	ldi	r24, 0x02	; 2
 572:	6e e0       	ldi	r22, 0x0E	; 14
 574:	0e 94 b7 03 	call	0x76e	; 0x76e <LCD_movecursor>
			LCD_vSend_char(counter4+48);
 578:	80 91 70 00 	lds	r24, 0x0070
 57c:	80 5d       	subi	r24, 0xD0	; 208
 57e:	0e 94 8c 03 	call	0x718	; 0x718 <LCD_vSend_char>
 582:	2d c0       	rjmp	.+90     	; 0x5de <main+0x186>
			
		}
		else if(button_u8read('B',7)==1)
 584:	82 e4       	ldi	r24, 0x42	; 66
 586:	67 e0       	ldi	r22, 0x07	; 7
 588:	0e 94 4d 00 	call	0x9a	; 0x9a <button_u8read>
 58c:	81 30       	cpi	r24, 0x01	; 1
 58e:	39 f5       	brne	.+78     	; 0x5de <main+0x186>
		{
			counter1=counter2=counter3=counter4=0;
 590:	10 92 70 00 	sts	0x0070, r1
 594:	10 92 71 00 	sts	0x0071, r1
 598:	10 92 72 00 	sts	0x0072, r1
 59c:	10 92 73 00 	sts	0x0073, r1
			LCD_movecursor(1,1);
 5a0:	61 e0       	ldi	r22, 0x01	; 1
 5a2:	0e 94 b7 03 	call	0x76e	; 0x76e <LCD_movecursor>
			LCD_vSend_string("A=0");
 5a6:	ce 01       	movw	r24, r28
 5a8:	0e 94 9e 03 	call	0x73c	; 0x73c <LCD_vSend_string>
			LCD_movecursor(1,12);
 5ac:	81 e0       	ldi	r24, 0x01	; 1
 5ae:	6c e0       	ldi	r22, 0x0C	; 12
 5b0:	0e 94 b7 03 	call	0x76e	; 0x76e <LCD_movecursor>
			LCD_vSend_string("B=0");
 5b4:	c8 01       	movw	r24, r16
 5b6:	0e 94 9e 03 	call	0x73c	; 0x73c <LCD_vSend_string>
			LCD_movecursor(2,1);
 5ba:	82 e0       	ldi	r24, 0x02	; 2
 5bc:	61 e0       	ldi	r22, 0x01	; 1
 5be:	0e 94 b7 03 	call	0x76e	; 0x76e <LCD_movecursor>
			LCD_vSend_string("C=0");
 5c2:	c7 01       	movw	r24, r14
 5c4:	0e 94 9e 03 	call	0x73c	; 0x73c <LCD_vSend_string>
			LCD_movecursor(2,12);
 5c8:	82 e0       	ldi	r24, 0x02	; 2
 5ca:	6c e0       	ldi	r22, 0x0C	; 12
 5cc:	0e 94 b7 03 	call	0x76e	; 0x76e <LCD_movecursor>
			LCD_vSend_string("D=0");
 5d0:	c6 01       	movw	r24, r12
 5d2:	0e 94 9e 03 	call	0x73c	; 0x73c <LCD_vSend_string>
			LCD_movecursor(1,1);
 5d6:	81 e0       	ldi	r24, 0x01	; 1
 5d8:	61 e0       	ldi	r22, 0x01	; 1
 5da:	0e 94 b7 03 	call	0x76e	; 0x76e <LCD_movecursor>
	#else
		//round up by default
		__ticks_dc = (uint32_t)(ceil(fabs(__tmp)));
	#endif

	__builtin_avr_delay_cycles(__ticks_dc);
 5de:	8f ef       	ldi	r24, 0xFF	; 255
 5e0:	91 ee       	ldi	r25, 0xE1	; 225
 5e2:	a4 e0       	ldi	r26, 0x04	; 4
 5e4:	81 50       	subi	r24, 0x01	; 1
 5e6:	90 40       	sbci	r25, 0x00	; 0
 5e8:	a0 40       	sbci	r26, 0x00	; 0
 5ea:	e1 f7       	brne	.-8      	; 0x5e4 <main+0x18c>
 5ec:	00 c0       	rjmp	.+0      	; 0x5ee <main+0x196>
 5ee:	00 00       	nop
 5f0:	75 cf       	rjmp	.-278    	; 0x4dc <main+0x84>

000005f2 <send_falling_edge>:
 5f2:	82 e4       	ldi	r24, 0x42	; 66
 5f4:	60 e0       	ldi	r22, 0x00	; 0
 5f6:	41 e0       	ldi	r20, 0x01	; 1
 5f8:	0e 94 d3 00 	call	0x1a6	; 0x1a6 <DIO_write>
 5fc:	8f e9       	ldi	r24, 0x9F	; 159
 5fe:	9f e0       	ldi	r25, 0x0F	; 15
 600:	01 97       	sbiw	r24, 0x01	; 1
 602:	f1 f7       	brne	.-4      	; 0x600 <send_falling_edge+0xe>
 604:	00 c0       	rjmp	.+0      	; 0x606 <send_falling_edge+0x14>
 606:	00 00       	nop
 608:	82 e4       	ldi	r24, 0x42	; 66
 60a:	60 e0       	ldi	r22, 0x00	; 0
 60c:	40 e0       	ldi	r20, 0x00	; 0
 60e:	0e 94 d3 00 	call	0x1a6	; 0x1a6 <DIO_write>
 612:	8f e9       	ldi	r24, 0x9F	; 159
 614:	9f e0       	ldi	r25, 0x0F	; 15
 616:	01 97       	sbiw	r24, 0x01	; 1
 618:	f1 f7       	brne	.-4      	; 0x616 <send_falling_edge+0x24>
 61a:	00 c0       	rjmp	.+0      	; 0x61c <send_falling_edge+0x2a>
 61c:	00 00       	nop
 61e:	08 95       	ret

00000620 <LCD_vSend_cmd>:
 620:	68 2f       	mov	r22, r24
 622:	81 e4       	ldi	r24, 0x41	; 65
 624:	0e 94 02 02 	call	0x404	; 0x404 <DIO_write_port>
 628:	82 e4       	ldi	r24, 0x42	; 66
 62a:	61 e0       	ldi	r22, 0x01	; 1
 62c:	40 e0       	ldi	r20, 0x00	; 0
 62e:	0e 94 d3 00 	call	0x1a6	; 0x1a6 <DIO_write>
 632:	0e 94 f9 02 	call	0x5f2	; 0x5f2 <send_falling_edge>
 636:	8f ec       	ldi	r24, 0xCF	; 207
 638:	97 e0       	ldi	r25, 0x07	; 7
 63a:	01 97       	sbiw	r24, 0x01	; 1
 63c:	f1 f7       	brne	.-4      	; 0x63a <LCD_vSend_cmd+0x1a>
 63e:	00 c0       	rjmp	.+0      	; 0x640 <LCD_vSend_cmd+0x20>
 640:	00 00       	nop
 642:	08 95       	ret

00000644 <LCD_vInit>:
 644:	8f ef       	ldi	r24, 0xFF	; 255
 646:	91 ee       	ldi	r25, 0xE1	; 225
 648:	a4 e0       	ldi	r26, 0x04	; 4
 64a:	81 50       	subi	r24, 0x01	; 1
 64c:	90 40       	sbci	r25, 0x00	; 0
 64e:	a0 40       	sbci	r26, 0x00	; 0
 650:	e1 f7       	brne	.-8      	; 0x64a <LCD_vInit+0x6>
 652:	00 c0       	rjmp	.+0      	; 0x654 <LCD_vInit+0x10>
 654:	00 00       	nop
 656:	81 e4       	ldi	r24, 0x41	; 65
 658:	60 e0       	ldi	r22, 0x00	; 0
 65a:	41 e0       	ldi	r20, 0x01	; 1
 65c:	0e 94 50 00 	call	0xa0	; 0xa0 <DIO_vsetPINDir>
 660:	81 e4       	ldi	r24, 0x41	; 65
 662:	61 e0       	ldi	r22, 0x01	; 1
 664:	41 e0       	ldi	r20, 0x01	; 1
 666:	0e 94 50 00 	call	0xa0	; 0xa0 <DIO_vsetPINDir>
 66a:	81 e4       	ldi	r24, 0x41	; 65
 66c:	62 e0       	ldi	r22, 0x02	; 2
 66e:	41 e0       	ldi	r20, 0x01	; 1
 670:	0e 94 50 00 	call	0xa0	; 0xa0 <DIO_vsetPINDir>
 674:	81 e4       	ldi	r24, 0x41	; 65
 676:	63 e0       	ldi	r22, 0x03	; 3
 678:	41 e0       	ldi	r20, 0x01	; 1
 67a:	0e 94 50 00 	call	0xa0	; 0xa0 <DIO_vsetPINDir>
 67e:	81 e4       	ldi	r24, 0x41	; 65
 680:	64 e0       	ldi	r22, 0x04	; 4
 682:	41 e0       	ldi	r20, 0x01	; 1
 684:	0e 94 50 00 	call	0xa0	; 0xa0 <DIO_vsetPINDir>
 688:	81 e4       	ldi	r24, 0x41	; 65
 68a:	65 e0       	ldi	r22, 0x05	; 5
 68c:	41 e0       	ldi	r20, 0x01	; 1
 68e:	0e 94 50 00 	call	0xa0	; 0xa0 <DIO_vsetPINDir>
 692:	81 e4       	ldi	r24, 0x41	; 65
 694:	66 e0       	ldi	r22, 0x06	; 6
 696:	41 e0       	ldi	r20, 0x01	; 1
 698:	0e 94 50 00 	call	0xa0	; 0xa0 <DIO_vsetPINDir>
 69c:	81 e4       	ldi	r24, 0x41	; 65
 69e:	67 e0       	ldi	r22, 0x07	; 7
 6a0:	41 e0       	ldi	r20, 0x01	; 1
 6a2:	0e 94 50 00 	call	0xa0	; 0xa0 <DIO_vsetPINDir>
 6a6:	82 e4       	ldi	r24, 0x42	; 66
 6a8:	60 e0       	ldi	r22, 0x00	; 0
 6aa:	41 e0       	ldi	r20, 0x01	; 1
 6ac:	0e 94 50 00 	call	0xa0	; 0xa0 <DIO_vsetPINDir>
 6b0:	82 e4       	ldi	r24, 0x42	; 66
 6b2:	62 e0       	ldi	r22, 0x02	; 2
 6b4:	41 e0       	ldi	r20, 0x01	; 1
 6b6:	0e 94 50 00 	call	0xa0	; 0xa0 <DIO_vsetPINDir>
 6ba:	82 e4       	ldi	r24, 0x42	; 66
 6bc:	61 e0       	ldi	r22, 0x01	; 1
 6be:	41 e0       	ldi	r20, 0x01	; 1
 6c0:	0e 94 50 00 	call	0xa0	; 0xa0 <DIO_vsetPINDir>
 6c4:	82 e4       	ldi	r24, 0x42	; 66
 6c6:	62 e0       	ldi	r22, 0x02	; 2
 6c8:	40 e0       	ldi	r20, 0x00	; 0
 6ca:	0e 94 d3 00 	call	0x1a6	; 0x1a6 <DIO_write>
 6ce:	88 e3       	ldi	r24, 0x38	; 56
 6d0:	0e 94 10 03 	call	0x620	; 0x620 <LCD_vSend_cmd>
 6d4:	af ec       	ldi	r26, 0xCF	; 207
 6d6:	b7 e0       	ldi	r27, 0x07	; 7
 6d8:	11 97       	sbiw	r26, 0x01	; 1
 6da:	f1 f7       	brne	.-4      	; 0x6d8 <LCD_vInit+0x94>
 6dc:	00 c0       	rjmp	.+0      	; 0x6de <LCD_vInit+0x9a>
 6de:	00 00       	nop
 6e0:	8c e0       	ldi	r24, 0x0C	; 12
 6e2:	0e 94 10 03 	call	0x620	; 0x620 <LCD_vSend_cmd>
 6e6:	8f ec       	ldi	r24, 0xCF	; 207
 6e8:	97 e0       	ldi	r25, 0x07	; 7
 6ea:	01 97       	sbiw	r24, 0x01	; 1
 6ec:	f1 f7       	brne	.-4      	; 0x6ea <LCD_vInit+0xa6>
 6ee:	00 c0       	rjmp	.+0      	; 0x6f0 <LCD_vInit+0xac>
 6f0:	00 00       	nop
 6f2:	81 e0       	ldi	r24, 0x01	; 1
 6f4:	0e 94 10 03 	call	0x620	; 0x620 <LCD_vSend_cmd>
 6f8:	af e1       	ldi	r26, 0x1F	; 31
 6fa:	be e4       	ldi	r27, 0x4E	; 78
 6fc:	11 97       	sbiw	r26, 0x01	; 1
 6fe:	f1 f7       	brne	.-4      	; 0x6fc <LCD_vInit+0xb8>
 700:	00 c0       	rjmp	.+0      	; 0x702 <LCD_vInit+0xbe>
 702:	00 00       	nop
 704:	86 e0       	ldi	r24, 0x06	; 6
 706:	0e 94 10 03 	call	0x620	; 0x620 <LCD_vSend_cmd>
 70a:	8f ec       	ldi	r24, 0xCF	; 207
 70c:	97 e0       	ldi	r25, 0x07	; 7
 70e:	01 97       	sbiw	r24, 0x01	; 1
 710:	f1 f7       	brne	.-4      	; 0x70e <LCD_vInit+0xca>
 712:	00 c0       	rjmp	.+0      	; 0x714 <LCD_vInit+0xd0>
 714:	00 00       	nop
 716:	08 95       	ret

00000718 <LCD_vSend_char>:
 718:	68 2f       	mov	r22, r24
 71a:	81 e4       	ldi	r24, 0x41	; 65
 71c:	0e 94 02 02 	call	0x404	; 0x404 <DIO_write_port>
 720:	82 e4       	ldi	r24, 0x42	; 66
 722:	61 e0       	ldi	r22, 0x01	; 1
 724:	41 e0       	ldi	r20, 0x01	; 1
 726:	0e 94 d3 00 	call	0x1a6	; 0x1a6 <DIO_write>
 72a:	0e 94 f9 02 	call	0x5f2	; 0x5f2 <send_falling_edge>
 72e:	8f ec       	ldi	r24, 0xCF	; 207
 730:	97 e0       	ldi	r25, 0x07	; 7
 732:	01 97       	sbiw	r24, 0x01	; 1
 734:	f1 f7       	brne	.-4      	; 0x732 <LCD_vSend_char+0x1a>
 736:	00 c0       	rjmp	.+0      	; 0x738 <LCD_vSend_char+0x20>
 738:	00 00       	nop
 73a:	08 95       	ret

0000073c <LCD_vSend_string>:
 73c:	cf 93       	push	r28
 73e:	df 93       	push	r29
 740:	ec 01       	movw	r28, r24
 742:	88 81       	ld	r24, Y
 744:	88 23       	and	r24, r24
 746:	31 f0       	breq	.+12     	; 0x754 <LCD_vSend_string+0x18>
 748:	21 96       	adiw	r28, 0x01	; 1
 74a:	0e 94 8c 03 	call	0x718	; 0x718 <LCD_vSend_char>
 74e:	89 91       	ld	r24, Y+
 750:	88 23       	and	r24, r24
 752:	d9 f7       	brne	.-10     	; 0x74a <LCD_vSend_string+0xe>
 754:	df 91       	pop	r29
 756:	cf 91       	pop	r28
 758:	08 95       	ret

0000075a <LCD_clearscreen>:
 75a:	81 e0       	ldi	r24, 0x01	; 1
 75c:	0e 94 10 03 	call	0x620	; 0x620 <LCD_vSend_cmd>
 760:	8f e1       	ldi	r24, 0x1F	; 31
 762:	9e e4       	ldi	r25, 0x4E	; 78
 764:	01 97       	sbiw	r24, 0x01	; 1
 766:	f1 f7       	brne	.-4      	; 0x764 <LCD_clearscreen+0xa>
 768:	00 c0       	rjmp	.+0      	; 0x76a <LCD_clearscreen+0x10>
 76a:	00 00       	nop
 76c:	08 95       	ret

0000076e <LCD_movecursor>:
 76e:	28 2f       	mov	r18, r24
 770:	21 50       	subi	r18, 0x01	; 1
 772:	22 30       	cpi	r18, 0x02	; 2
 774:	70 f4       	brcc	.+28     	; 0x792 <LCD_movecursor+0x24>
 776:	61 31       	cpi	r22, 0x11	; 17
 778:	70 f4       	brcc	.+28     	; 0x796 <LCD_movecursor+0x28>
 77a:	66 23       	and	r22, r22
 77c:	71 f0       	breq	.+28     	; 0x79a <LCD_movecursor+0x2c>
 77e:	81 30       	cpi	r24, 0x01	; 1
 780:	19 f4       	brne	.+6      	; 0x788 <LCD_movecursor+0x1a>
 782:	96 2f       	mov	r25, r22
 784:	91 58       	subi	r25, 0x81	; 129
 786:	0a c0       	rjmp	.+20     	; 0x79c <LCD_movecursor+0x2e>
 788:	82 30       	cpi	r24, 0x02	; 2
 78a:	41 f4       	brne	.+16     	; 0x79c <LCD_movecursor+0x2e>
 78c:	96 2f       	mov	r25, r22
 78e:	91 54       	subi	r25, 0x41	; 65
 790:	05 c0       	rjmp	.+10     	; 0x79c <LCD_movecursor+0x2e>
 792:	90 e8       	ldi	r25, 0x80	; 128
 794:	03 c0       	rjmp	.+6      	; 0x79c <LCD_movecursor+0x2e>
 796:	90 e8       	ldi	r25, 0x80	; 128
 798:	01 c0       	rjmp	.+2      	; 0x79c <LCD_movecursor+0x2e>
 79a:	90 e8       	ldi	r25, 0x80	; 128
 79c:	89 2f       	mov	r24, r25
 79e:	0e 94 10 03 	call	0x620	; 0x620 <LCD_vSend_cmd>
 7a2:	8f ec       	ldi	r24, 0xCF	; 207
 7a4:	97 e0       	ldi	r25, 0x07	; 7
 7a6:	01 97       	sbiw	r24, 0x01	; 1
 7a8:	f1 f7       	brne	.-4      	; 0x7a6 <LCD_movecursor+0x38>
 7aa:	00 c0       	rjmp	.+0      	; 0x7ac <LCD_movecursor+0x3e>
 7ac:	00 00       	nop
 7ae:	08 95       	ret

000007b0 <_exit>:
 7b0:	f8 94       	cli

000007b2 <__stop_program>:
 7b2:	ff cf       	rjmp	.-2      	; 0x7b2 <__stop_program>
